; Function Attrs: mustprogress nofree norecurse nosync nounwind willreturn memory(argmem: write) uwtable
define hidden void @_ZN3sat4ddfw16reset_statisticsEv(ptr noundef nonnull writeonly align 8 captures(none) dereferenceable(434) initializes((236, 244), (264, 272), (280, 288)) %0) local_unnamed_addr #17 align 2 {
  %2 = getelementptr inbounds nuw i8, ptr %0, i64 264
  store i64 0, ptr %2, align 8, !tbaa !98
  %3 = getelementptr inbounds nuw i8, ptr %0, i64 236
  store i32 0, ptr %3, align 4, !tbaa !94
  %4 = getelementptr inbounds nuw i8, ptr %0, i64 240
  store i32 0, ptr %4, align 8, !tbaa !91
  %5 = getelementptr inbounds nuw i8, ptr %0, i64 280
  store i64 0, ptr %5, align 8, !tbaa !124
  ret void
}